target datalayout = "e-m:e-p270:32:32-p271:32:32-p272:64:64-i64:64-i128:128-f80:128-n8:16:32:64-S128"
target triple = "x86_64-pc-linux-gnu"

; Function Attrs: mustprogress nounwind uwtable
define hidden noundef i32 @_Z4log2j(i32 noundef %0) #4 {
  %2 = alloca i32, align 4
  %3 = alloca i32, align 4
  store i32 %0, ptr %2, align 4, !tbaa !3
  call void @llvm.lifetime.start.p0(i64 4, ptr %3) #3
  store i32 0, ptr %3, align 4, !tbaa !3
  %4 = load i32, ptr %2, align 4, !tbaa !3
  %5 = and i32 %4, -65536
  %6 = icmp ne i32 %5, 0
  br i1 %6, label %7, label %12

7:                                                ; preds = %1
  %8 = load i32, ptr %2, align 4, !tbaa !3
  %9 = lshr i32 %8, 16
  store i32 %9, ptr %2, align 4, !tbaa !3
  %10 = load i32, ptr %3, align 4, !tbaa !3
  %11 = or i32 %10, 16
  store i32 %11, ptr %3, align 4, !tbaa !3
  br label %12

12:                                               ; preds = %7, %1
  %13 = load i32, ptr %2, align 4, !tbaa !3
  %14 = and i32 %13, 65280
  %15 = icmp ne i32 %14, 0
  br i1 %15, label %16, label %21

16:                                               ; preds = %12
  %17 = load i32, ptr %2, align 4, !tbaa !3
  %18 = lshr i32 %17, 8
  store i32 %18, ptr %2, align 4, !tbaa !3
  %19 = load i32, ptr %3, align 4, !tbaa !3
  %20 = or i32 %19, 8
  store i32 %20, ptr %3, align 4, !tbaa !3
  br label %21

21:                                               ; preds = %16, %12
  %22 = load i32, ptr %2, align 4, !tbaa !3
  %23 = and i32 %22, 240
  %24 = icmp ne i32 %23, 0
  br i1 %24, label %25, label %30

25:                                               ; preds = %21
  %26 = load i32, ptr %2, align 4, !tbaa !3
  %27 = lshr i32 %26, 4
  store i32 %27, ptr %2, align 4, !tbaa !3
  %28 = load i32, ptr %3, align 4, !tbaa !3
  %29 = or i32 %28, 4
  store i32 %29, ptr %3, align 4, !tbaa !3
  br label %30

30:                                               ; preds = %25, %21
  %31 = load i32, ptr %2, align 4, !tbaa !3
  %32 = and i32 %31, 12
  %33 = icmp ne i32 %32, 0
  br i1 %33, label %34, label %39

34:                                               ; preds = %30
  %35 = load i32, ptr %2, align 4, !tbaa !3
  %36 = lshr i32 %35, 2
  store i32 %36, ptr %2, align 4, !tbaa !3
  %37 = load i32, ptr %3, align 4, !tbaa !3
  %38 = or i32 %37, 2
  store i32 %38, ptr %3, align 4, !tbaa !3
  br label %39

39:                                               ; preds = %34, %30
  %40 = load i32, ptr %2, align 4, !tbaa !3
  %41 = and i32 %40, 2
  %42 = icmp ne i32 %41, 0
  br i1 %42, label %43, label %48

43:                                               ; preds = %39
  %44 = load i32, ptr %2, align 4, !tbaa !3
  %45 = lshr i32 %44, 1
  store i32 %45, ptr %2, align 4, !tbaa !3
  %46 = load i32, ptr %3, align 4, !tbaa !3
  %47 = or i32 %46, 1
  store i32 %47, ptr %3, align 4, !tbaa !3
  br label %48

48:                                               ; preds = %43, %39
  %49 = load i32, ptr %3, align 4, !tbaa !3
  call void @llvm.lifetime.end.p0(i64 4, ptr %3) #3
  ret i32 %49
}