; Function Attrs: mustprogress nofree norecurse nosync nounwind willreturn memory(none) uwtable
define hidden noundef range(i32 0, 32) i32 @_Z4log2j(i32 noundef %0) local_unnamed_addr #7 {
  %.not = icmp ult i32 %0, 65536
  %2 = lshr i32 %0, 16
  %spec.select = select i1 %.not, i32 %0, i32 %2
  %spec.select24 = select i1 %.not, i32 0, i32 16
  %.not20 = icmp samesign ult i32 %spec.select, 256
  %3 = lshr i32 %spec.select, 8
  %4 = or disjoint i32 %spec.select24, 8
  %.117 = select i1 %.not20, i32 %spec.select, i32 %3
  %.1 = select i1 %.not20, i32 %spec.select24, i32 %4
  %.not21 = icmp samesign ult i32 %.117, 16
  %5 = lshr i32 %.117, 4
  %6 = or disjoint i32 %.1, 4
  %.218 = select i1 %.not21, i32 %.117, i32 %5
  %.2 = select i1 %.not21, i32 %.1, i32 %6
  %.not22 = icmp samesign ult i32 %.218, 4
  %7 = lshr i32 %.218, 2
  %8 = or disjoint i32 %.2, 2
  %.319 = select i1 %.not22, i32 %.218, i32 %7
  %.3 = select i1 %.not22, i32 %.2, i32 %8
  %9 = lshr i32 %.319, 1
  %10 = and i32 %9, 1
  %.4 = or i32 %10, %.3
  ret i32 %.4
}